; Function Attrs: mustprogress sspstrong uwtable
define noundef zeroext i1 @_ZN4FLAC7Encoder6Stream21set_streamable_subsetEb(ptr nocapture noundef nonnull readonly align 8 dereferenceable(16) %this, i1 noundef zeroext %value) unnamed_addr #0 align 2 {
entry:
  %encoder_ = getelementptr inbounds i8, ptr %this, i64 8
  %0 = load ptr, ptr %encoder_, align 8
  %conv = zext i1 %value to i32
  %call = tail call i32 @FLAC__stream_encoder_set_streamable_subset(ptr noundef %0, i32 noundef %conv)
  %tobool2 = icmp ne i32 %call, 0
  ret i1 %tobool2
}